target datalayout = "e-m:e-p270:32:32-p271:32:32-p272:64:64-i64:64-i128:128-f80:128-n8:16:32:64-S128"
target triple = "x86_64-pc-linux-gnu"

@av_bessel_i0.q1 = internal constant [6 x double] [double 0xC31FBDA33BA182B6, double 0x429CB049BE3F8C67, double 0xC206BCC8882E78CA, double 0x4163CAEF21DBA530, double 0xC0B2F4C18A653933, double 1.000000e+00], align 16
@av_bessel_i0.p2 = internal constant [7 x double] [double 0xBF2D1C86FFA1268E, double 0x3F8AC313AB94D944, double 0xBFDC9BC7AEB177D8, double 0x40164512182A0319, double 0xC037849816897026, double 0x403F9C7FA6F99EB1, double 0xC02337CF22CD75C0], align 16
@av_bessel_i0.q2 = internal constant [8 x double] [double 0xBF4216093761A9A1, double 0x3FA0AA178175AEA7, double 0xBFF1D7C2B44D9E48, double 0x402BF716BCFC57BA, double 0xC04E1D2F2BF60AA2, double 0x405562883454D27B, double 0xC03F725A4B3B25EF, double 1.000000e+00], align 16

; Function Attrs: inlinehint nounwind uwtable
define internal double @eval_poly(ptr noundef %0, i32 noundef %1, double noundef %2) #10 {
  %4 = alloca ptr, align 8
  %5 = alloca i32, align 4
  %6 = alloca double, align 8
  %7 = alloca double, align 8
  %8 = alloca i32, align 4
  store ptr %0, ptr %4, align 8, !tbaa !25
  store i32 %1, ptr %5, align 4, !tbaa !8
  store double %2, ptr %6, align 8, !tbaa !23
  call void @llvm.lifetime.start.p0(i64 8, ptr %7) #11
  %9 = load ptr, ptr %4, align 8, !tbaa !25
  %10 = load i32, ptr %5, align 4, !tbaa !8
  %11 = sub nsw i32 %10, 1
  %12 = sext i32 %11 to i64
  %13 = getelementptr inbounds double, ptr %9, i64 %12
  %14 = load double, ptr %13, align 8, !tbaa !23
  store double %14, ptr %7, align 8, !tbaa !23
  call void @llvm.lifetime.start.p0(i64 4, ptr %8) #11
  %15 = load i32, ptr %5, align 4, !tbaa !8
  %16 = sub nsw i32 %15, 2
  store i32 %16, ptr %8, align 4, !tbaa !8
  br label %17

17:                                               ; preds = %31, %3
  %18 = load i32, ptr %8, align 4, !tbaa !8
  %19 = icmp sge i32 %18, 0
  br i1 %19, label %20, label %34

20:                                               ; preds = %17
  %21 = load double, ptr %6, align 8, !tbaa !23
  %22 = load double, ptr %7, align 8, !tbaa !23
  %23 = fmul nsz double %22, %21
  store double %23, ptr %7, align 8, !tbaa !23
  %24 = load ptr, ptr %4, align 8, !tbaa !25
  %25 = load i32, ptr %8, align 4, !tbaa !8
  %26 = sext i32 %25 to i64
  %27 = getelementptr inbounds double, ptr %24, i64 %26
  %28 = load double, ptr %27, align 8, !tbaa !23
  %29 = load double, ptr %7, align 8, !tbaa !23
  %30 = fadd nsz double %29, %28
  store double %30, ptr %7, align 8, !tbaa !23
  br label %31

31:                                               ; preds = %20
  %32 = load i32, ptr %8, align 4, !tbaa !8
  %33 = add nsw i32 %32, -1
  store i32 %33, ptr %8, align 4, !tbaa !8
  br label %17, !llvm.loop !27

34:                                               ; preds = %17
  %35 = load double, ptr %7, align 8, !tbaa !23
  call void @llvm.lifetime.end.p0(i64 4, ptr %8) #11
  call void @llvm.lifetime.end.p0(i64 8, ptr %7) #11
  ret double %35
}

; Function Attrs: nounwind uwtable
define double @av_bessel_i0(double noundef %0) #4 {
  %2 = alloca double, align 8
  %3 = alloca double, align 8
  %4 = alloca double, align 8
  %5 = alloca double, align 8
  %6 = alloca double, align 8
  %7 = alloca i32, align 4
  store double %0, ptr %3, align 8, !tbaa !23
  call void @llvm.lifetime.start.p0(i64 8, ptr %4) #11
  call void @llvm.lifetime.start.p0(i64 8, ptr %5) #11
  call void @llvm.lifetime.start.p0(i64 8, ptr %6) #11
  %8 = load double, ptr %3, align 8, !tbaa !23
  %9 = fcmp nsz oeq double %8, 0.000000e+00
  br i1 %9, label %10, label %11

10:                                               ; preds = %1
  store double 1.000000e+00, ptr %2, align 8
  store i32 1, ptr %7, align 4
  br label %42

11:                                               ; preds = %1
  %12 = load double, ptr %3, align 8, !tbaa !23
  %13 = call nsz double @llvm.fabs.f64(double %12)
  store double %13, ptr %3, align 8, !tbaa !23
  %14 = load double, ptr %3, align 8, !tbaa !23
  %15 = fcmp nsz ole double %14, 1.500000e+01
  br i1 %15, label %16, label %25

16:                                               ; preds = %11
  %17 = load double, ptr %3, align 8, !tbaa !23
  %18 = load double, ptr %3, align 8, !tbaa !23
  %19 = fmul nsz double %17, %18
  store double %19, ptr %4, align 8, !tbaa !23
  %20 = load double, ptr %4, align 8, !tbaa !23
  %21 = call nsz double @eval_poly(ptr noundef @av_bessel_i0.p1, i32 noundef 15, double noundef %20)
  %22 = load double, ptr %4, align 8, !tbaa !23
  %23 = call nsz double @eval_poly(ptr noundef @av_bessel_i0.q1, i32 noundef 6, double noundef %22)
  %24 = fdiv nsz double %21, %23
  store double %24, ptr %2, align 8
  store i32 1, ptr %7, align 4
  br label %42

25:                                               ; preds = %11
  %26 = load double, ptr %3, align 8, !tbaa !23
  %27 = fdiv nsz double 1.000000e+00, %26
  %28 = fsub nsz double %27, 0x3FB1111111111111
  store double %28, ptr %4, align 8, !tbaa !23
  %29 = load double, ptr %4, align 8, !tbaa !23
  %30 = call nsz double @eval_poly(ptr noundef @av_bessel_i0.p2, i32 noundef 7, double noundef %29)
  %31 = load double, ptr %4, align 8, !tbaa !23
  %32 = call nsz double @eval_poly(ptr noundef @av_bessel_i0.q2, i32 noundef 8, double noundef %31)
  %33 = fdiv nsz double %30, %32
  store double %33, ptr %5, align 8, !tbaa !23
  %34 = load double, ptr %3, align 8, !tbaa !23
  %35 = call nsz double @llvm.exp.f64(double %34)
  %36 = load double, ptr %3, align 8, !tbaa !23
  %37 = call nsz double @llvm.sqrt.f64(double %36)
  %38 = fdiv nsz double %35, %37
  store double %38, ptr %6, align 8, !tbaa !23
  %39 = load double, ptr %6, align 8, !tbaa !23
  %40 = load double, ptr %5, align 8, !tbaa !23
  %41 = fmul nsz double %39, %40
  store double %41, ptr %2, align 8
  store i32 1, ptr %7, align 4
  br label %42

42:                                               ; preds = %25, %16, %10
  call void @llvm.lifetime.end.p0(i64 8, ptr %6) #11
  call void @llvm.lifetime.end.p0(i64 8, ptr %5) #11
  call void @llvm.lifetime.end.p0(i64 8, ptr %4) #11
  %43 = load double, ptr %2, align 8
  ret double %43
}