; Function Attrs: nofree norecurse nosync nounwind memory(none) uwtable
define double @av_bessel_i0(double noundef %0) local_unnamed_addr #8 {
  %2 = fcmp nsz oeq double %0, 0.000000e+00
  br i1 %2, label %33, label %3

3:                                                ; preds = %1
  %4 = tail call nsz double @llvm.fabs.f64(double %0)
  %5 = fcmp nsz ugt double %4, 1.500000e+01
  br i1 %5, label %17, label %6

6:                                                ; preds = %3
  %7 = fmul nsz double %0, %0
  br label %.lr.ph.i

.lr.ph.i:                                         ; preds = %.lr.ph.i, %6
  %indvars.iv.i = phi i64 [ 13, %6 ], [ %indvars.iv.next.i, %.lr.ph.i ]
  %.01011.i = phi double [ 0xBC5834AC6DF8A5D9, %6 ], [ %11, %.lr.ph.i ]
  %8 = fmul nsz double %7, %.01011.i
  %9 = getelementptr inbounds nuw double, ptr @av_bessel_i0.p1, i64 %indvars.iv.i
  %10 = load double, ptr %9, align 8, !tbaa !11
  %11 = fadd nsz double %8, %10
  %indvars.iv.next.i = add nsw i64 %indvars.iv.i, -1
  %.not.i = icmp eq i64 %indvars.iv.i, 0
  br i1 %.not.i, label %.lr.ph.i17, label %.lr.ph.i, !llvm.loop !13

.lr.ph.i17:                                       ; preds = %.lr.ph.i, %.lr.ph.i17
  %indvars.iv.i18 = phi i64 [ %indvars.iv.next.i20, %.lr.ph.i17 ], [ 4, %.lr.ph.i ]
  %.01011.i19 = phi double [ %15, %.lr.ph.i17 ], [ 1.000000e+00, %.lr.ph.i ]
  %12 = fmul nsz double %7, %.01011.i19
  %13 = getelementptr inbounds nuw double, ptr @av_bessel_i0.q1, i64 %indvars.iv.i18
  %14 = load double, ptr %13, align 8, !tbaa !11
  %15 = fadd nsz double %12, %14
  %indvars.iv.next.i20 = add nsw i64 %indvars.iv.i18, -1
  %.not.i21 = icmp eq i64 %indvars.iv.i18, 0
  br i1 %.not.i21, label %eval_poly.exit22, label %.lr.ph.i17, !llvm.loop !13

eval_poly.exit22:                                 ; preds = %.lr.ph.i17
  %16 = fdiv nsz double %11, %15
  br label %33

17:                                               ; preds = %3
  %18 = fdiv nsz double 1.000000e+00, %4
  %19 = fadd nsz double %18, 0xBFB1111111111111
  br label %.lr.ph.i23

.lr.ph.i23:                                       ; preds = %.lr.ph.i23, %17
  %indvars.iv.i24 = phi i64 [ 5, %17 ], [ %indvars.iv.next.i26, %.lr.ph.i23 ]
  %.01011.i25 = phi double [ 0xC02337CF22CD75C0, %17 ], [ %23, %.lr.ph.i23 ]
  %20 = fmul nsz double %19, %.01011.i25
  %21 = getelementptr inbounds nuw double, ptr @av_bessel_i0.p2, i64 %indvars.iv.i24
  %22 = load double, ptr %21, align 8, !tbaa !11
  %23 = fadd nsz double %20, %22
  %indvars.iv.next.i26 = add nsw i64 %indvars.iv.i24, -1
  %.not.i27 = icmp eq i64 %indvars.iv.i24, 0
  br i1 %.not.i27, label %.lr.ph.i29, label %.lr.ph.i23, !llvm.loop !13

.lr.ph.i29:                                       ; preds = %.lr.ph.i23, %.lr.ph.i29
  %indvars.iv.i30 = phi i64 [ %indvars.iv.next.i32, %.lr.ph.i29 ], [ 6, %.lr.ph.i23 ]
  %.01011.i31 = phi double [ %27, %.lr.ph.i29 ], [ 1.000000e+00, %.lr.ph.i23 ]
  %24 = fmul nsz double %19, %.01011.i31
  %25 = getelementptr inbounds nuw double, ptr @av_bessel_i0.q2, i64 %indvars.iv.i30
  %26 = load double, ptr %25, align 8, !tbaa !11
  %27 = fadd nsz double %24, %26
  %indvars.iv.next.i32 = add nsw i64 %indvars.iv.i30, -1
  %.not.i33 = icmp eq i64 %indvars.iv.i30, 0
  br i1 %.not.i33, label %eval_poly.exit34, label %.lr.ph.i29, !llvm.loop !13

eval_poly.exit34:                                 ; preds = %.lr.ph.i29
  %28 = fdiv nsz double %23, %27
  %29 = tail call nsz double @llvm.exp.f64(double %4)
  %30 = tail call nsz double @llvm.sqrt.f64(double %4)
  %31 = fdiv nsz double %29, %30
  %32 = fmul nsz double %31, %28
  br label %33

33:                                               ; preds = %1, %eval_poly.exit34, %eval_poly.exit22
  %.0 = phi nsz double [ %16, %eval_poly.exit22 ], [ %32, %eval_poly.exit34 ], [ 1.000000e+00, %1 ]
  ret double %.0
}